target datalayout = "e-m:e-p270:32:32-p271:32:32-p272:64:64-i64:64-i128:128-f80:128-n8:16:32:64-S128"
target triple = "x86_64-pc-linux-gnu"

%"struct.Luau::AstNameTable::Entry" = type { %"struct.Luau::AstName", i32, i32 }
%"struct.Luau::AstName" = type { ptr }
%"class.Luau::AstNameTable" = type { %"class.Luau::DenseHashSet", ptr }
%"class.Luau::DenseHashSet" = type { %"class.Luau::detail::DenseHashTable" }
%"class.Luau::detail::DenseHashTable" = type <{ ptr, i64, i64, %"struct.Luau::AstNameTable::Entry", [8 x i8] }>

; Function Attrs: mustprogress nounwind uwtable
define linkonce_odr dso_local void @_ZN4Luau7AstNameC2EPKc(ptr noundef nonnull align 8 dereferenceable(8) %0, ptr noundef %1) unnamed_addr #2 comdat align 2 {
  %3 = alloca ptr, align 8
  %4 = alloca ptr, align 8
  store ptr %0, ptr %3, align 8, !tbaa !57
  store ptr %1, ptr %4, align 8, !tbaa !11
  %5 = load ptr, ptr %3, align 8
  %6 = getelementptr inbounds nuw %"struct.Luau::AstName", ptr %5, i32 0, i32 0
  %7 = load ptr, ptr %4, align 8, !tbaa !11
  store ptr %7, ptr %6, align 8, !tbaa !59
  ret void
}

; Function Attrs: mustprogress uwtable
define dso_local ptr @_ZN4Luau12AstNameTable9addStaticEPKcNS_6Lexeme4TypeE(ptr noundef nonnull align 8 dereferenceable(56) %0, ptr noundef %1, i32 noundef %2) #4 align 2 {
  %4 = alloca %"struct.Luau::AstName", align 8
  %5 = alloca ptr, align 8
  %6 = alloca ptr, align 8
  %7 = alloca i32, align 4
  %8 = alloca %"struct.Luau::AstNameTable::Entry", align 8
  store ptr %0, ptr %5, align 8, !tbaa !51
  store ptr %1, ptr %6, align 8, !tbaa !11
  store i32 %2, ptr %7, align 4, !tbaa !26
  %9 = load ptr, ptr %5, align 8
  call void @llvm.lifetime.start.p0(i64 16, ptr %8) #18
  %10 = getelementptr inbounds nuw %"struct.Luau::AstNameTable::Entry", ptr %8, i32 0, i32 0
  %11 = load ptr, ptr %6, align 8, !tbaa !11
  call void @_ZN4Luau7AstNameC2EPKc(ptr noundef nonnull align 8 dereferenceable(8) %10, ptr noundef %11)
  %12 = getelementptr inbounds nuw %"struct.Luau::AstNameTable::Entry", ptr %8, i32 0, i32 1
  %13 = load ptr, ptr %6, align 8, !tbaa !11
  %14 = call i64 @strlen(ptr noundef %13) #20
  %15 = trunc i64 %14 to i32
  store i32 %15, ptr %12, align 8, !tbaa !43
  %16 = getelementptr inbounds nuw %"struct.Luau::AstNameTable::Entry", ptr %8, i32 0, i32 2
  %17 = load i32, ptr %7, align 4, !tbaa !26
  store i32 %17, ptr %16, align 4, !tbaa !55
  %18 = getelementptr inbounds nuw %"class.Luau::AstNameTable", ptr %9, i32 0, i32 0
  %19 = call noundef nonnull align 8 dereferenceable(16) ptr @_ZN4Luau12DenseHashSetINS_12AstNameTable5EntryENS1_9EntryHashESt8equal_toIS2_EE6insertERKS2_(ptr noundef nonnull align 8 dereferenceable(48) %18, ptr noundef nonnull align 8 dereferenceable(16) %8)
  %20 = getelementptr inbounds nuw %"struct.Luau::AstNameTable::Entry", ptr %8, i32 0, i32 0
  call void @llvm.memcpy.p0.p0.i64(ptr align 8 %4, ptr align 8 %20, i64 8, i1 false), !tbaa.struct !62
  call void @llvm.lifetime.end.p0(i64 16, ptr %8) #18
  %21 = getelementptr inbounds nuw %"struct.Luau::AstName", ptr %4, i32 0, i32 0
  %22 = load ptr, ptr %21, align 8
  ret ptr %22
}