; Function Attrs: mustprogress uwtable
define dso_local ptr @_ZN4Luau12AstNameTable9addStaticEPKcNS_6Lexeme4TypeE(ptr noundef nonnull align 8 dereferenceable(56) %0, ptr noundef %1, i32 noundef %2) local_unnamed_addr #5 align 2 {
  %4 = alloca %"struct.Luau::AstNameTable::Entry", align 8
  call void @llvm.lifetime.start.p0(i64 16, ptr nonnull %4) #24
  store ptr %1, ptr %4, align 8, !tbaa !42
  %5 = getelementptr inbounds nuw i8, ptr %4, i64 8
  %6 = tail call i64 @strlen(ptr noundef nonnull dereferenceable(1) %1) #27
  %7 = trunc i64 %6 to i32
  store i32 %7, ptr %5, align 8, !tbaa !26
  %8 = getelementptr inbounds nuw i8, ptr %4, i64 12
  store i32 %2, ptr %8, align 4, !tbaa !43
  %9 = call noundef nonnull align 8 dereferenceable(16) ptr @_ZN4Luau12DenseHashSetINS_12AstNameTable5EntryENS1_9EntryHashESt8equal_toIS2_EE6insertERKS2_(ptr noundef nonnull align 8 dereferenceable(48) %0, ptr noundef nonnull align 8 dereferenceable(16) %4)
  %.sroa.0.0.copyload = load ptr, ptr %4, align 8, !tbaa !25
  call void @llvm.lifetime.end.p0(i64 16, ptr nonnull %4) #24
  ret ptr %.sroa.0.0.copyload
}